	.file	"Pwd.c"
__SP_H__ = 0x3e
__SP_L__ = 0x3d
__SREG__ = 0x3f
__tmp_reg__ = 0
__zero_reg__ = 1
	.text
.Ltext0:
	.cfi_sections	.debug_frame
	.section	.text.Pwd_Counters,"ax",@progbits
.global	Pwd_Counters
	.type	Pwd_Counters, @function
Pwd_Counters:
.LFB6:
	.file 1 "../HAL/PWD/PWD_Src/Pwd.c"
	.loc 1 19 0
	.cfi_startproc
/* prologue: function */
/* frame size = 0 */
/* stack size = 0 */
.L__stack_usage = 0
.LVL0:
	.loc 1 24 0
	lds r24,u16TimeCounter
	lds r25,u16TimeCounter+1
	lds r26,u16TimeCounter+2
	lds r27,u16TimeCounter+3
	adiw r24,1
	adc r26,__zero_reg__
	adc r27,__zero_reg__
	sts u16TimeCounter,r24
	sts u16TimeCounter+1,r25
	sts u16TimeCounter+2,r26
	sts u16TimeCounter+3,r27
.LVL1:
	ret
	.cfi_endproc
.LFE6:
	.size	Pwd_Counters, .-Pwd_Counters
	.section	.text.Pwd_Init,"ax",@progbits
.global	Pwd_Init
	.type	Pwd_Init, @function
Pwd_Init:
.LFB7:
	.loc 1 29 0
	.cfi_startproc
/* prologue: function */
/* frame size = 0 */
/* stack size = 0 */
.L__stack_usage = 0
.LVL2:
	.loc 1 34 0
	sts PwdState,__zero_reg__
	.loc 1 35 0
	sts au8PwdDuty,__zero_reg__
	.loc 1 36 0
	sts au16PwdFrequency+1,__zero_reg__
	sts au16PwdFrequency,__zero_reg__
.LVL3:
	.loc 1 38 0
	ldi r24,lo8(1)
	sts PwdInitState,r24
	.loc 1 41 0
	ldi r24,0
	ret
	.cfi_endproc
.LFE7:
	.size	Pwd_Init, .-Pwd_Init
.global	__floatunsisf
.global	__divsf3
.global	__mulsf3
.global	__addsf3
.global	__fixunssfsi
	.section	.text.Pwd_CalcValues,"ax",@progbits
.global	Pwd_CalcValues
	.type	Pwd_CalcValues, @function
Pwd_CalcValues:
.LFB8:
	.loc 1 44 0
	.cfi_startproc
	push r8
.LCFI0:
	.cfi_def_cfa_offset 3
	.cfi_offset 8, -2
	push r9
.LCFI1:
	.cfi_def_cfa_offset 4
	.cfi_offset 9, -3
	push r10
.LCFI2:
	.cfi_def_cfa_offset 5
	.cfi_offset 10, -4
	push r11
.LCFI3:
	.cfi_def_cfa_offset 6
	.cfi_offset 11, -5
	push r12
.LCFI4:
	.cfi_def_cfa_offset 7
	.cfi_offset 12, -6
	push r13
.LCFI5:
	.cfi_def_cfa_offset 8
	.cfi_offset 13, -7
	push r14
.LCFI6:
	.cfi_def_cfa_offset 9
	.cfi_offset 14, -8
	push r15
.LCFI7:
	.cfi_def_cfa_offset 10
	.cfi_offset 15, -9
	push r28
.LCFI8:
	.cfi_def_cfa_offset 11
	.cfi_offset 28, -10
	push r29
.LCFI9:
	.cfi_def_cfa_offset 12
	.cfi_offset 29, -11
	push __zero_reg__
.LCFI10:
	.cfi_def_cfa_offset 13
	in r28,__SP_L__
	in r29,__SP_H__
.LCFI11:
	.cfi_def_cfa_register 28
/* prologue: function */
/* frame size = 1 */
/* stack size = 11 */
.L__stack_usage = 11
.LVL4:
	.loc 1 46 0
	std Y+1,__zero_reg__
.LVL5:
	.loc 1 52 0
	lds r24,PwdInitState
	cpi r24,lo8(1)
	breq .+2
	rjmp .L15
.LVL6:
	.loc 1 61 0
	movw r22,r28
	subi r22,-1
	sbci r23,-1
	lds r24,Pwd_CfgArr
	call Dio_Read
.LVL7:
	.loc 1 63 0
	lds r24,PwdState
	cpi r24,lo8(2)
	breq .L6
	brsh .L7
	tst r24
	breq .L8
	cpi r24,lo8(1)
	breq .L9
	rjmp .L16
.L7:
	cpi r24,lo8(4)
	brne .+2
	rjmp .L10
	brlo .L11
	cpi r24,lo8(5)
	brne .+2
	rjmp .L12
	rjmp .L16
.L8:
	.loc 1 67 0
	ldd r24,Y+1
	cpi r24,lo8(1)
	breq .+2
	rjmp .L17
	.loc 1 69 0
	sts PwdState,r24
	ldi r24,0
	rjmp .L4
.L9:
	.loc 1 74 0
	sts u16TimeCounter,__zero_reg__
	sts u16TimeCounter+1,__zero_reg__
	sts u16TimeCounter+2,__zero_reg__
	sts u16TimeCounter+3,__zero_reg__
	.loc 1 76 0
	ldd r24,Y+1
	cpi r24,lo8(1)
	brne .L13
	.loc 1 78 0
	ldi r24,lo8(2)
	sts PwdState,r24
	ldi r24,0
	rjmp .L4
.L13:
	.loc 1 82 0
	sts PwdState,__zero_reg__
.LVL8:
	.loc 1 83 0
	ldi r24,lo8(1)
	rjmp .L4
.LVL9:
.L6:
	.loc 1 89 0
	ldd r24,Y+1
	cpse r24,__zero_reg__
	rjmp .L18
	.loc 1 91 0
	ldi r24,lo8(3)
	sts PwdState,r24
	ldi r24,0
	rjmp .L4
.L11:
	.loc 1 96 0
	lds r24,u16TimeCounter
	lds r25,u16TimeCounter+1
	lds r26,u16TimeCounter+2
	lds r27,u16TimeCounter+3
	sts u16HighCount.1891,r24
	sts u16HighCount.1891+1,r25
	sts u16HighCount.1891+2,r26
	sts u16HighCount.1891+3,r27
	.loc 1 97 0
	sts u16TimeCounter,__zero_reg__
	sts u16TimeCounter+1,__zero_reg__
	sts u16TimeCounter+2,__zero_reg__
	sts u16TimeCounter+3,__zero_reg__
	.loc 1 99 0
	ldd r24,Y+1
	cpse r24,__zero_reg__
	rjmp .L14
	.loc 1 101 0
	ldi r24,lo8(4)
	sts PwdState,r24
	ldi r24,0
	rjmp .L4
.L14:
	.loc 1 105 0
	sts PwdState,__zero_reg__
.LVL10:
	.loc 1 106 0
	ldi r24,lo8(1)
	rjmp .L4
.LVL11:
.L10:
	.loc 1 112 0
	ldd r24,Y+1
	cpi r24,lo8(1)
	breq .+2
	rjmp .L19
	.loc 1 114 0
	ldi r24,lo8(5)
	sts PwdState,r24
	ldi r24,0
	rjmp .L4
.L12:
	.loc 1 120 0
	lds r12,u16HighCount.1891
	lds r13,u16HighCount.1891+1
	lds r14,u16HighCount.1891+2
	lds r15,u16HighCount.1891+3
	lds r24,u16TimeCounter
	lds r25,u16TimeCounter+1
	lds r26,u16TimeCounter+2
	lds r27,u16TimeCounter+3
	movw r22,r24
	movw r24,r26
	add r22,r12
	adc r23,r13
	adc r24,r14
	adc r25,r15
	call __floatunsisf
.LVL12:
	movw r8,r22
	movw r10,r24
	movw r24,r14
	movw r22,r12
	call __floatunsisf
.LVL13:
	movw r20,r10
	movw r18,r8
	call __divsf3
.LVL14:
	ldi r18,0
	ldi r19,0
	ldi r20,lo8(-56)
	ldi r21,lo8(66)
	call __mulsf3
.LVL15:
	ldi r18,0
	ldi r19,0
	ldi r20,0
	ldi r21,lo8(63)
	call __addsf3
.LVL16:
	call __fixunssfsi
.LVL17:
	sts au8PwdDuty,r22
	.loc 1 121 0
	movw r20,r10
	movw r18,r8
	ldi r22,0
	ldi r23,0
	ldi r24,lo8(-128)
	ldi r25,lo8(63)
	call __divsf3
.LVL18:
	ldi r18,0
	ldi r19,0
	ldi r20,lo8(122)
	ldi r21,lo8(68)
	call __mulsf3
.LVL19:
	ldi r18,0
	ldi r19,0
	ldi r20,0
	ldi r21,lo8(63)
	call __addsf3
.LVL20:
	call __fixunssfsi
.LVL21:
	sts au16PwdFrequency+1,r23
	sts au16PwdFrequency,r22
	.loc 1 123 0
	sts PwdState,__zero_reg__
	.loc 1 124 0
	ldi r24,0
	rjmp .L4
.L16:
	.loc 1 63 0
	ldi r24,0
	rjmp .L4
.L17:
	ldi r24,0
	rjmp .L4
.L18:
	ldi r24,0
	rjmp .L4
.L19:
	ldi r24,0
.LVL22:
	rjmp .L4
.LVL23:
.L15:
	.loc 1 54 0
	ldi r24,lo8(1)
.LVL24:
.L4:
/* epilogue start */
	.loc 1 133 0
	pop __tmp_reg__
	pop r29
	pop r28
	pop r15
	pop r14
	pop r13
	pop r12
	pop r11
	pop r10
	pop r9
	pop r8
	ret
	.cfi_endproc
.LFE8:
	.size	Pwd_CalcValues, .-Pwd_CalcValues
	.section	.text.Pwd_GetDuty,"ax",@progbits
.global	Pwd_GetDuty
	.type	Pwd_GetDuty, @function
Pwd_GetDuty:
.LFB9:
	.loc 1 136 0
	.cfi_startproc
.LVL25:
/* prologue: function */
/* frame size = 0 */
/* stack size = 0 */
.L__stack_usage = 0
	.loc 1 139 0
	cpse r24,__zero_reg__
	rjmp .L22
	.loc 1 139 0 is_stmt 0 discriminator 1
	lds r24,PwdInitState
.LVL26:
	cpi r24,lo8(1)
	brne .L23
	.loc 1 145 0 is_stmt 1
	lds r24,au8PwdDuty
	movw r30,r22
	st Z,r24
	.loc 1 137 0
	ldi r24,0
	ret
.LVL27:
.L22:
	.loc 1 141 0
	ldi r24,lo8(1)
.LVL28:
	ret
.L23:
	ldi r24,lo8(1)
.LVL29:
	.loc 1 149 0
	ret
	.cfi_endproc
.LFE9:
	.size	Pwd_GetDuty, .-Pwd_GetDuty
	.section	.text.Pwd_GetFrequency,"ax",@progbits
.global	Pwd_GetFrequency
	.type	Pwd_GetFrequency, @function
Pwd_GetFrequency:
.LFB10:
	.loc 1 152 0
	.cfi_startproc
.LVL30:
/* prologue: function */
/* frame size = 0 */
/* stack size = 0 */
.L__stack_usage = 0
	.loc 1 155 0
	cpse r24,__zero_reg__
	rjmp .L26
	.loc 1 155 0 is_stmt 0 discriminator 1
	lds r24,PwdInitState
.LVL31:
	cpi r24,lo8(1)
	brne .L27
	.loc 1 161 0 is_stmt 1
	lds r24,au16PwdFrequency
	lds r25,au16PwdFrequency+1
	movw r30,r22
	std Z+1,r25
	st Z,r24
	.loc 1 153 0
	ldi r24,0
	ret
.LVL32:
.L26:
	.loc 1 157 0
	ldi r24,lo8(1)
.LVL33:
	ret
.L27:
	ldi r24,lo8(1)
.LVL34:
	.loc 1 165 0
	ret
	.cfi_endproc
.LFE10:
	.size	Pwd_GetFrequency, .-Pwd_GetFrequency
	.section	.bss.u16HighCount.1891,"aw",@nobits
	.type	u16HighCount.1891, @object
	.size	u16HighCount.1891, 4
u16HighCount.1891:
	.zero	4
	.section	.bss.u16TimeCounter,"aw",@nobits
	.type	u16TimeCounter, @object
	.size	u16TimeCounter, 4
u16TimeCounter:
	.zero	4
	.section	.bss.PwdInitState,"aw",@nobits
	.type	PwdInitState, @object
	.size	PwdInitState, 1
PwdInitState:
	.zero	1
	.section	.bss.au16PwdFrequency,"aw",@nobits
	.type	au16PwdFrequency, @object
	.size	au16PwdFrequency, 2
au16PwdFrequency:
	.zero	2
	.section	.bss.au8PwdDuty,"aw",@nobits
	.type	au8PwdDuty, @object
	.size	au8PwdDuty, 1
au8PwdDuty:
	.zero	1
	.section	.bss.PwdState,"aw",@nobits
	.type	PwdState, @object
	.size	PwdState, 1
PwdState:
	.zero	1
	.text
.Letext0:
	.file 2 "../HAL/PWD/PWD_Src/../../../Std_Headers/Std_Types.h"
	.file 3 "../HAL/PWD/PWD_Src/Pwd.h"
	.file 4 "../HAL/PWD/PWD_Src/../PWD_Cfg/../../../MCAL/Dio/Dio_Src/Dio.h"
	.file 5 "../HAL/PWD/PWD_Src/../PWD_Cfg/Pwd_Cfg.h"