	.file	"Seg7.c"
__SP_H__ = 0x3e
__SP_L__ = 0x3d
__SREG__ = 0x3f
__tmp_reg__ = 0
__zero_reg__ = 1
	.text
.Ltext0:
	.cfi_sections	.debug_frame
	.section	.text.Seg7_DpValue,"ax",@progbits
.global	Seg7_DpValue
	.type	Seg7_DpValue, @function
Seg7_DpValue:
.LFB7:
	.file 1 "../HAL/Seg7/Seg7_Src/Seg7.c"
	.loc 1 30 0
	.cfi_startproc
.LVL0:
/* prologue: function */
/* frame size = 0 */
/* stack size = 0 */
.L__stack_usage = 0
	.loc 1 33 0
	cpi r24,lo8(2)
	brsh .L3
	.loc 1 39 0
	mov r30,r24
	ldi r31,0
	subi r30,lo8(-(G_au8Seg7DP))
	sbci r31,hi8(-(G_au8Seg7DP))
	st Z,r22
	.loc 1 31 0
	ldi r24,0
.LVL1:
	ret
.LVL2:
.L3:
	.loc 1 35 0
	ldi r24,lo8(1)
.LVL3:
	.loc 1 43 0
	ret
	.cfi_endproc
.LFE7:
	.size	Seg7_DpValue, .-Seg7_DpValue
	.section	.text.Seg7_WriteBuffer,"ax",@progbits
.global	Seg7_WriteBuffer
	.type	Seg7_WriteBuffer, @function
Seg7_WriteBuffer:
.LFB8:
	.loc 1 46 0
	.cfi_startproc
.LVL4:
/* prologue: function */
/* frame size = 0 */
/* stack size = 0 */
.L__stack_usage = 0
	.loc 1 49 0
	cpi r24,lo8(2)
	brsh .L6
	.loc 1 50 0
	cpi r22,lo8(10)
	brsh .L7
	.loc 1 56 0
	mov r30,r24
	ldi r31,0
	subi r30,lo8(-(G_au8Seg7Buffer))
	sbci r31,hi8(-(G_au8Seg7Buffer))
	st Z,r22
	.loc 1 47 0
	ldi r24,0
.LVL5:
	ret
.LVL6:
.L6:
	.loc 1 52 0
	ldi r24,lo8(1)
.LVL7:
	ret
.LVL8:
.L7:
	ldi r24,lo8(1)
.LVL9:
	.loc 1 60 0
	ret
	.cfi_endproc
.LFE8:
	.size	Seg7_WriteBuffer, .-Seg7_WriteBuffer
	.section	.text.Seg7_UpdateDisplays,"ax",@progbits
.global	Seg7_UpdateDisplays
	.type	Seg7_UpdateDisplays, @function
Seg7_UpdateDisplays:
.LFB9:
	.loc 1 63 0
	.cfi_startproc
	push r14
.LCFI0:
	.cfi_def_cfa_offset 3
	.cfi_offset 14, -2
	push r15
.LCFI1:
	.cfi_def_cfa_offset 4
	.cfi_offset 15, -3
	push r16
.LCFI2:
	.cfi_def_cfa_offset 5
	.cfi_offset 16, -4
	push r17
.LCFI3:
	.cfi_def_cfa_offset 6
	.cfi_offset 17, -5
	push r28
.LCFI4:
	.cfi_def_cfa_offset 7
	.cfi_offset 28, -6
	push r29
.LCFI5:
	.cfi_def_cfa_offset 8
	.cfi_offset 29, -7
/* prologue: function */
/* frame size = 0 */
/* stack size = 6 */
.L__stack_usage = 6
.LVL10:
	.loc 1 71 0
	lds r14,u8displayIdx.1881
	mov r15,__zero_reg__
.LVL11:
	.loc 1 72 0
	movw r30,r14
	subi r30,lo8(-(G_au8Seg7Buffer))
	sbci r31,hi8(-(G_au8Seg7Buffer))
	ld r17,Z
.LVL12:
	.loc 1 73 0
	movw r30,r14
	subi r30,lo8(-(G_au8Seg7DP))
	sbci r31,hi8(-(G_au8Seg7DP))
	ld r16,Z
.LVL13:
	.loc 1 78 0
	ldi r28,lo8(Seg7_CfgArr)
	ldi r29,hi8(Seg7_CfgArr)
	ldi r22,0
	ld r24,Y
	call Dio_Write
.LVL14:
	ldi r22,0
	ldd r24,Y+7
	call Dio_Write
.LVL15:
	.loc 1 83 0
	mov r22,r17
	andi r22,lo8(1)
	movw r28,r14
	lsl r28
	rol r29
	lsl r28
	rol r29
	lsl r28
	rol r29
	sub r28,r14
	sbc r29,r15
	subi r28,lo8(-(Seg7_CfgArr))
	sbci r29,hi8(-(Seg7_CfgArr))
	ldd r24,Y+1
	call Dio_Write
.LVL16:
	.loc 1 84 0
	bst r17,1
	clr r22
	bld r22,0
	ldd r24,Y+2
	call Dio_Write
.LVL17:
	.loc 1 85 0
	bst r17,2
	clr r22
	bld r22,0
	ldd r24,Y+3
	call Dio_Write
.LVL18:
	.loc 1 86 0
	bst r17,3
	clr r22
	bld r22,0
	ldd r24,Y+4
	call Dio_Write
.LVL19:
	.loc 1 87 0
	mov r22,r16
	ldd r24,Y+5
	call Dio_Write
.LVL20:
	.loc 1 90 0
	ldi r22,lo8(1)
	ld r24,Y
	call Dio_Write
.LVL21:
	.loc 1 91 0
	lds r24,u8displayIdx.1881
	ldi r25,0
	adiw r24,1
	andi r24,1
	andi r25,128
	tst r25
	brge .L9
	sbiw r24,1
	ori r24,254
	ori r25,255
	adiw r24,1
.L9:
	sts u8displayIdx.1881,r24
	.loc 1 94 0
	ldi r24,0
/* epilogue start */
	pop r29
	pop r28
	pop r17
.LVL22:
	pop r16
.LVL23:
	pop r15
	pop r14
.LVL24:
	ret
	.cfi_endproc
.LFE9:
	.size	Seg7_UpdateDisplays, .-Seg7_UpdateDisplays
	.section	.text.Seg7_Init,"ax",@progbits
.global	Seg7_Init
	.type	Seg7_Init, @function
Seg7_Init:
.LFB6:
	.loc 1 12 0
	.cfi_startproc
	push r14
.LCFI6:
	.cfi_def_cfa_offset 3
	.cfi_offset 14, -2
	push r15
.LCFI7:
	.cfi_def_cfa_offset 4
	.cfi_offset 15, -3
	push r16
.LCFI8:
	.cfi_def_cfa_offset 5
	.cfi_offset 16, -4
	push r17
.LCFI9:
	.cfi_def_cfa_offset 6
	.cfi_offset 17, -5
	push r28
.LCFI10:
	.cfi_def_cfa_offset 7
	.cfi_offset 28, -6
	push r29
.LCFI11:
	.cfi_def_cfa_offset 8
	.cfi_offset 29, -7
/* prologue: function */
/* frame size = 0 */
/* stack size = 6 */
.L__stack_usage = 6
.LVL25:
	.loc 1 19 0
	ldi r28,lo8(Seg7_CfgArr)
	ldi r29,hi8(Seg7_CfgArr)
	ld r24,Y
	call Dio_ClearChannel
.LVL26:
	.loc 1 20 0
	mov __tmp_reg__,r31
	ldi r31,lo8(G_au8Seg7Buffer)
	mov r14,r31
	ldi r31,hi8(G_au8Seg7Buffer)
	mov r15,r31
	mov r31,__tmp_reg__
	ldd r24,Y+6
	movw r30,r14
	st Z,r24
	.loc 1 21 0
	ldi r16,lo8(G_au8Seg7DP)
	ldi r17,hi8(G_au8Seg7DP)
	movw r30,r16
	st Z,__zero_reg__
.LVL27:
	.loc 1 19 0
	ldd r24,Y+7
	call Dio_ClearChannel
.LVL28:
	.loc 1 20 0
	ldd r24,Y+13
	movw r30,r14
	std Z+1,r24
	.loc 1 21 0
	movw r30,r16
	std Z+1,__zero_reg__
.LVL29:
	.loc 1 24 0
	call Seg7_UpdateDisplays
.LVL30:
	.loc 1 27 0
	ldi r24,0
/* epilogue start */
	pop r29
	pop r28
	pop r17
	pop r16
	pop r15
	pop r14
	ret
	.cfi_endproc
.LFE6:
	.size	Seg7_Init, .-Seg7_Init
	.section	.bss.u8displayIdx.1881,"aw",@nobits
	.type	u8displayIdx.1881, @object
	.size	u8displayIdx.1881, 1
u8displayIdx.1881:
	.zero	1
	.section	.bss.G_au8Seg7DP,"aw",@nobits
	.type	G_au8Seg7DP, @object
	.size	G_au8Seg7DP, 2
G_au8Seg7DP:
	.zero	2
	.section	.bss.G_au8Seg7Buffer,"aw",@nobits
	.type	G_au8Seg7Buffer, @object
	.size	G_au8Seg7Buffer, 2
G_au8Seg7Buffer:
	.zero	2
	.text
.Letext0:
	.file 2 "../HAL/Seg7/Seg7_Src/../../../Std_Headers/Std_Types.h"
	.file 3 "../HAL/Seg7/Seg7_Src/../../../MCAL/Dio/Dio_Src/Dio.h"
	.file 4 "../HAL/Seg7/Seg7_Src/../Seg7_Cfg/Seg7_Cfg.h"
	.file 5 "../HAL/Seg7/Seg7_Src/Seg7.h"