	.file	"Switch.c"
__SP_H__ = 0x3e
__SP_L__ = 0x3d
__SREG__ = 0x3f
__tmp_reg__ = 0
__zero_reg__ = 1
	.text
.Ltext0:
	.cfi_sections	.debug_frame
	.section	.text.Sw_Init,"ax",@progbits
.global	Sw_Init
	.type	Sw_Init, @function
Sw_Init:
.LFB6:
	.file 1 "../HAL/Switch/Switch_Src/Switch.c"
	.loc 1 16 0
	.cfi_startproc
/* prologue: function */
/* frame size = 0 */
/* stack size = 0 */
.L__stack_usage = 0
.LVL0:
	ldi r26,lo8(Sw_CfgArr)
	ldi r27,hi8(Sw_CfgArr)
	ldi r30,lo8(SwValue)
	ldi r31,hi8(SwValue)
	ldi r18,lo8(SwValue+3)
	ldi r19,hi8(SwValue+3)
	.loc 1 28 0
	ldi r25,lo8(1)
.LVL1:
.L4:
	.loc 1 22 0
	adiw r26,1
	ld r24,X
	sbiw r26,1
	cpi r24,lo8(1)
	brne .L2
	.loc 1 24 0
	st Z,__zero_reg__
	rjmp .L3
.L2:
	.loc 1 28 0
	st Z,r25
.L3:
.LVL2:
	adiw r26,2
	adiw r30,1
.LVL3:
	.loc 1 20 0
	cp r30,r18
	cpc r31,r19
	brne .L4
	.loc 1 34 0
	sts SwInitState,__zero_reg__
	.loc 1 37 0
	ldi r24,0
	ret
	.cfi_endproc
.LFE6:
	.size	Sw_Init, .-Sw_Init
	.section	.text.Sw_UpdateState_Cyclic,"ax",@progbits
.global	Sw_UpdateState_Cyclic
	.type	Sw_UpdateState_Cyclic, @function
Sw_UpdateState_Cyclic:
.LFB7:
	.loc 1 41 0
	.cfi_startproc
	push r6
.LCFI0:
	.cfi_def_cfa_offset 3
	.cfi_offset 6, -2
	push r7
.LCFI1:
	.cfi_def_cfa_offset 4
	.cfi_offset 7, -3
	push r8
.LCFI2:
	.cfi_def_cfa_offset 5
	.cfi_offset 8, -4
	push r9
.LCFI3:
	.cfi_def_cfa_offset 6
	.cfi_offset 9, -5
	push r10
.LCFI4:
	.cfi_def_cfa_offset 7
	.cfi_offset 10, -6
	push r11
.LCFI5:
	.cfi_def_cfa_offset 8
	.cfi_offset 11, -7
	push r12
.LCFI6:
	.cfi_def_cfa_offset 9
	.cfi_offset 12, -8
	push r13
.LCFI7:
	.cfi_def_cfa_offset 10
	.cfi_offset 13, -9
	push r14
.LCFI8:
	.cfi_def_cfa_offset 11
	.cfi_offset 14, -10
	push r15
.LCFI9:
	.cfi_def_cfa_offset 12
	.cfi_offset 15, -11
	push r16
.LCFI10:
	.cfi_def_cfa_offset 13
	.cfi_offset 16, -12
	push r17
.LCFI11:
	.cfi_def_cfa_offset 14
	.cfi_offset 17, -13
	push r28
.LCFI12:
	.cfi_def_cfa_offset 15
	.cfi_offset 28, -14
	push r29
.LCFI13:
	.cfi_def_cfa_offset 16
	.cfi_offset 29, -15
	push __zero_reg__
.LCFI14:
	.cfi_def_cfa_offset 17
	in r28,__SP_L__
	in r29,__SP_H__
.LCFI15:
	.cfi_def_cfa_register 28
/* prologue: function */
/* frame size = 1 */
/* stack size = 15 */
.L__stack_usage = 15
.LVL4:
	.loc 1 46 0
	std Y+1,__zero_reg__
	.loc 1 48 0
	lds r24,SwInitState
	cpse r24,__zero_reg__
	rjmp .L18
	mov __tmp_reg__,r31
	ldi r31,lo8(Sw_CfgArr)
	mov r14,r31
	ldi r31,hi8(Sw_CfgArr)
	mov r15,r31
	mov r31,__tmp_reg__
	ldi r16,lo8(SwState.1875)
	ldi r17,hi8(SwState.1875)
	mov __tmp_reg__,r31
	ldi r31,lo8(SwValue)
	mov r12,r31
	ldi r31,hi8(SwValue)
	mov r13,r31
	mov r31,__tmp_reg__
	mov __tmp_reg__,r31
	ldi r31,lo8(SwState.1875+3)
	mov r10,r31
	ldi r31,hi8(SwState.1875+3)
	mov r11,r31
	mov r31,__tmp_reg__
	.loc 1 61 0
	clr r9
	inc r9
	mov r8,__zero_reg__
	.loc 1 80 0
	set
	clr r7
	bld r7,1
	.loc 1 93 0
	mov __tmp_reg__,r31
	ldi r31,lo8(3)
	mov r6,r31
	mov r31,__tmp_reg__
.LVL5:
.L17:
	.loc 1 57 0
	movw r22,r28
	subi r22,-1
	sbci r23,-1
	movw r26,r14
	ld r24,X
	call Dio_Read
.LVL6:
	.loc 1 59 0
	movw r30,r14
	ldd r24,Z+1
	cpse r24,__zero_reg__
	rjmp .L8
	.loc 1 61 0
	mov r24,r9
	ldd r25,Y+1
	cpse r25,__zero_reg__
	mov r24,r8
.L9:
	std Y+1,r24
.L8:
	movw r30,r16
	.loc 1 64 0
	ld r24,Z
	cpi r24,lo8(1)
	breq .L11
	brlo .L12
	cpi r24,lo8(2)
	breq .L13
	cpi r24,lo8(3)
	breq .L14
	rjmp .L10
.L12:
	.loc 1 67 0
	movw r26,r12
	st X,__zero_reg__
	.loc 1 69 0
	ldd r24,Y+1
	cpi r24,lo8(1)
	brne .L10
	.loc 1 71 0
	st Z,r9
	rjmp .L10
.L11:
	.loc 1 76 0
	movw r26,r12
	st X,__zero_reg__
	.loc 1 78 0
	ldd r24,Y+1
	cpi r24,lo8(1)
	brne .L15
	.loc 1 80 0
	st Z,r7
	rjmp .L10
.L15:
	.loc 1 82 0
	cpse r24,__zero_reg__
	rjmp .L10
	.loc 1 84 0
	st Z,__zero_reg__
	rjmp .L10
.L13:
	.loc 1 89 0
	movw r26,r12
	st X,r9
	.loc 1 91 0
	ldd r24,Y+1
	cpse r24,__zero_reg__
	rjmp .L10
	.loc 1 93 0
	st Z,r6
	rjmp .L10
.L14:
	.loc 1 98 0
	movw r26,r12
	st X,r9
	.loc 1 100 0
	ldd r24,Y+1
	cpi r24,lo8(1)
	brne .L16
	.loc 1 102 0
	st Z,r7
	rjmp .L10
.L16:
	.loc 1 104 0
	cpse r24,__zero_reg__
	rjmp .L10
	.loc 1 106 0
	st Z,__zero_reg__
.L10:
.LVL7:
	ldi r27,2
	add r14,r27
	adc r15,__zero_reg__
	subi r16,-1
	sbci r17,-1
.LVL8:
	ldi r30,-1
	sub r12,r30
	sbc r13,r30
.LVL9:
	.loc 1 54 0
	cp r16,r10
	cpc r17,r11
	breq .+2
	rjmp .L17
	.loc 1 42 0
	ldi r24,0
	rjmp .L7
.LVL10:
.L18:
	.loc 1 50 0
	ldi r24,lo8(1)
.LVL11:
.L7:
/* epilogue start */
	.loc 1 119 0
	pop __tmp_reg__
	pop r29
	pop r28
	pop r17
	pop r16
	pop r15
	pop r14
	pop r13
	pop r12
	pop r11
	pop r10
	pop r9
	pop r8
	pop r7
	pop r6
	ret
	.cfi_endproc
.LFE7:
	.size	Sw_UpdateState_Cyclic, .-Sw_UpdateState_Cyclic
	.section	.text.Sw_GetState,"ax",@progbits
.global	Sw_GetState
	.type	Sw_GetState, @function
Sw_GetState:
.LFB8:
	.loc 1 123 0
	.cfi_startproc
.LVL12:
/* prologue: function */
/* frame size = 0 */
/* stack size = 0 */
.L__stack_usage = 0
	.loc 1 126 0
	cpi r24,lo8(3)
	brsh .L22
	.loc 1 126 0 is_stmt 0 discriminator 1
	lds r25,SwInitState
	cpse r25,__zero_reg__
	rjmp .L23
	.loc 1 132 0 is_stmt 1
	mov r30,r24
	ldi r31,0
	subi r30,lo8(-(SwValue))
	sbci r31,hi8(-(SwValue))
	ld r24,Z
.LVL13:
	movw r30,r22
	st Z,r24
	.loc 1 124 0
	ldi r24,0
	ret
.LVL14:
.L22:
	.loc 1 128 0
	ldi r24,lo8(1)
.LVL15:
	ret
.LVL16:
.L23:
	ldi r24,lo8(1)
.LVL17:
	.loc 1 136 0
	ret
	.cfi_endproc
.LFE8:
	.size	Sw_GetState, .-Sw_GetState
	.section	.text.Sw_GetStateOnce,"ax",@progbits
.global	Sw_GetStateOnce
	.type	Sw_GetStateOnce, @function
Sw_GetStateOnce:
.LFB9:
	.loc 1 139 0
	.cfi_startproc
.LVL18:
/* prologue: function */
/* frame size = 0 */
/* stack size = 0 */
.L__stack_usage = 0
	.loc 1 143 0
	cpi r24,lo8(3)
	brlo .+2
	rjmp .L32
	.loc 1 143 0 is_stmt 0 discriminator 1
	lds r25,SwInitState
	cpse r25,__zero_reg__
	rjmp .L33
	.loc 1 149 0 is_stmt 1
	ldi r25,0
	movw r30,r24
	subi r30,lo8(-(State.1897))
	sbci r31,hi8(-(State.1897))
	ld r18,Z
	cpi r18,lo8(1)
	breq .L26
	brlo .L27
	cpi r18,lo8(2)
	breq .L28
	rjmp .L35
.L27:
	.loc 1 152 0
	movw r30,r22
	st Z,__zero_reg__
	.loc 1 154 0
	movw r30,r24
	subi r30,lo8(-(SwValue))
	sbci r31,hi8(-(SwValue))
	ld r18,Z
	cpi r18,lo8(1)
	brne .L29
	.loc 1 156 0
	movw r30,r24
	subi r30,lo8(-(State.1897))
	sbci r31,hi8(-(State.1897))
	st Z,r18
	.loc 1 140 0
	ldi r24,0
.LVL19:
	ret
.LVL20:
.L29:
	.loc 1 160 0
	movw r30,r24
	subi r30,lo8(-(State.1897))
	sbci r31,hi8(-(State.1897))
	st Z,__zero_reg__
	.loc 1 140 0
	ldi r24,0
.LVL21:
	ret
.LVL22:
.L26:
	.loc 1 165 0
	ldi r18,lo8(1)
	movw r30,r22
	st Z,r18
	.loc 1 167 0
	movw r30,r24
	subi r30,lo8(-(SwValue))
	sbci r31,hi8(-(SwValue))
	ld r18,Z
	cpi r18,lo8(1)
	brne .L30
	.loc 1 169 0
	movw r30,r24
	subi r30,lo8(-(State.1897))
	sbci r31,hi8(-(State.1897))
	ldi r18,lo8(2)
	st Z,r18
	.loc 1 140 0
	ldi r24,0
.LVL23:
	ret
.LVL24:
.L30:
	.loc 1 173 0
	movw r30,r24
	subi r30,lo8(-(State.1897))
	sbci r31,hi8(-(State.1897))
	st Z,__zero_reg__
	.loc 1 140 0
	ldi r24,0
.LVL25:
	ret
.LVL26:
.L28:
	.loc 1 178 0
	movw r30,r22
	st Z,__zero_reg__
	.loc 1 180 0
	movw r30,r24
	subi r30,lo8(-(SwValue))
	sbci r31,hi8(-(SwValue))
	ld r18,Z
	cpi r18,lo8(1)
	brne .L31
	.loc 1 182 0
	movw r30,r24
	subi r30,lo8(-(State.1897))
	sbci r31,hi8(-(State.1897))
	ldi r18,lo8(2)
	st Z,r18
	.loc 1 140 0
	ldi r24,0
.LVL27:
	ret
.LVL28:
.L31:
	.loc 1 186 0
	movw r30,r24
	subi r30,lo8(-(State.1897))
	sbci r31,hi8(-(State.1897))
	st Z,__zero_reg__
	.loc 1 140 0
	ldi r24,0
.LVL29:
	ret
.LVL30:
.L32:
	.loc 1 145 0
	ldi r24,lo8(1)
.LVL31:
	ret
.LVL32:
.L33:
	ldi r24,lo8(1)
.LVL33:
	ret
.LVL34:
.L35:
	.loc 1 140 0
	ldi r24,0
.LVL35:
	.loc 1 193 0
	ret
	.cfi_endproc
.LFE9:
	.size	Sw_GetStateOnce, .-Sw_GetStateOnce
	.section	.bss.State.1897,"aw",@nobits
	.type	State.1897, @object
	.size	State.1897, 3
State.1897:
	.zero	3
	.section	.bss.SwState.1875,"aw",@nobits
	.type	SwState.1875, @object
	.size	SwState.1875, 3
SwState.1875:
	.zero	3
	.section	.bss.SwValue,"aw",@nobits
	.type	SwValue, @object
	.size	SwValue, 3
SwValue:
	.zero	3
	.section	.data.SwInitState,"aw",@progbits
	.type	SwInitState, @object
	.size	SwInitState, 1
SwInitState:
	.byte	1
	.text
.Letext0:
	.file 2 "../HAL/Switch/Switch_Src/../../../Std_Headers/Std_Types.h"
	.file 3 "../HAL/Switch/Switch_Src/../../../MCAL/Dio/Dio_Src/Dio.h"
	.file 4 "../HAL/Switch/Switch_Src/../Switch_Cfg/Switch_Cfg.h"
	.file 5 "../HAL/Switch/Switch_Src/Switch.h"